target datalayout = "e-m:e-p270:32:32-p271:32:32-p272:64:64-i64:64-i128:128-f80:128-n8:16:32:64-S128"
target triple = "x86_64-pc-linux-gnu"

; Function Attrs: mustprogress nounwind uwtable
define internal noundef i32 @_ZL15sockopt_invalidv() #1 {
  %1 = call ptr @__errno_location() #18
  store i32 22, ptr %1, align 4, !tbaa !17
  ret i32 -1
}

; Function Attrs: mustprogress nounwind uwtable
define internal noundef i32 @_ZL13do_setsockoptIiEiPKvmPT_(ptr noundef %0, i64 noundef %1, ptr noundef %2) #1 {
  %4 = alloca i32, align 4
  %5 = alloca ptr, align 8
  %6 = alloca i64, align 8
  %7 = alloca ptr, align 8
  store ptr %0, ptr %5, align 8, !tbaa !3
  store i64 %1, ptr %6, align 8, !tbaa !11
  store ptr %2, ptr %7, align 8, !tbaa !23
  %8 = load i64, ptr %6, align 8, !tbaa !11
  %9 = icmp eq i64 %8, 4
  br i1 %9, label %10, label %13

10:                                               ; preds = %3
  %11 = load ptr, ptr %7, align 8, !tbaa !23
  %12 = load ptr, ptr %5, align 8, !tbaa !3
  call void @llvm.memcpy.p0.p0.i64(ptr align 4 %11, ptr align 1 %12, i64 4, i1 false)
  store i32 0, ptr %4, align 4
  br label %15

13:                                               ; preds = %3
  %14 = call noundef i32 @_ZL15sockopt_invalidv()
  store i32 %14, ptr %4, align 4
  br label %15

15:                                               ; preds = %13, %10
  %16 = load i32, ptr %4, align 4
  ret i32 %16
}

; Function Attrs: mustprogress uwtable
define noundef i32 @_ZN3zmq32do_setsockopt_int_as_bool_strictEPKvmPb(ptr noundef %0, i64 noundef %1, ptr noundef %2) #0 {
  %4 = alloca i32, align 4
  %5 = alloca ptr, align 8
  %6 = alloca i64, align 8
  %7 = alloca ptr, align 8
  %8 = alloca i32, align 4
  %9 = alloca i32, align 4
  store ptr %0, ptr %5, align 8, !tbaa !3
  store i64 %1, ptr %6, align 8, !tbaa !11
  store ptr %2, ptr %7, align 8, !tbaa !19
  call void @llvm.lifetime.start.p0(i64 4, ptr %8) #17
  store i32 -1, ptr %8, align 4, !tbaa !17
  %10 = load ptr, ptr %5, align 8, !tbaa !3
  %11 = load i64, ptr %6, align 8, !tbaa !11
  %12 = call noundef i32 @_ZL13do_setsockoptIiEiPKvmPT_(ptr noundef %10, i64 noundef %11, ptr noundef %8)
  %13 = icmp eq i32 %12, -1
  br i1 %13, label %14, label %15

14:                                               ; preds = %3
  store i32 -1, ptr %4, align 4
  store i32 1, ptr %9, align 4
  br label %28

15:                                               ; preds = %3
  %16 = load i32, ptr %8, align 4, !tbaa !17
  %17 = icmp eq i32 %16, 0
  br i1 %17, label %21, label %18

18:                                               ; preds = %15
  %19 = load i32, ptr %8, align 4, !tbaa !17
  %20 = icmp eq i32 %19, 1
  br i1 %20, label %21, label %26

21:                                               ; preds = %18, %15
  %22 = load i32, ptr %8, align 4, !tbaa !17
  %23 = icmp ne i32 %22, 0
  %24 = load ptr, ptr %7, align 8, !tbaa !19
  %25 = zext i1 %23 to i8
  store i8 %25, ptr %24, align 1, !tbaa !21
  store i32 0, ptr %4, align 4
  store i32 1, ptr %9, align 4
  br label %28

26:                                               ; preds = %18
  %27 = call noundef i32 @_ZL15sockopt_invalidv()
  store i32 %27, ptr %4, align 4
  store i32 1, ptr %9, align 4
  br label %28

28:                                               ; preds = %26, %21, %14
  call void @llvm.lifetime.end.p0(i64 4, ptr %8) #17
  %29 = load i32, ptr %4, align 4
  ret i32 %29
}